; ModuleID = 'source-C-CXX/10/118.c'
source_filename = "source-C-CXX/10/118.c"
target datalayout = "e-m:e-p270:32:32-p271:32:32-p272:64:64-i64:64-f80:128-n8:16:32:64-S128"
target triple = "x86_64-pc-linux-gnu"

@.str = private unnamed_addr constant [9 x i8] c"%d %d %d\00", align 1
@.str.1 = private unnamed_addr constant [11 x i8] c"data error\00", align 1
@.str.2 = private unnamed_addr constant [3 x i8] c"%d\00", align 1
@switch.table.main = private unnamed_addr constant [12 x i32] [i32 0, i32 31, i32 59, i32 90, i32 120, i32 151, i32 181, i32 212, i32 243, i32 273, i32 304, i32 334], align 4

; Function Attrs: nofree nounwind sspstrong uwtable
define dso_local i32 @main() local_unnamed_addr #0 {
  %1 = alloca i32, align 4
  %2 = alloca i32, align 4
  %3 = alloca i32, align 4
  %4 = bitcast i32* %1 to i8*
  call void @llvm.lifetime.start.p0i8(i64 4, i8* nonnull %4) #3
  %5 = bitcast i32* %2 to i8*
  call void @llvm.lifetime.start.p0i8(i64 4, i8* nonnull %5) #3
  %6 = bitcast i32* %3 to i8*
  call void @llvm.lifetime.start.p0i8(i64 4, i8* nonnull %6) #3
  %7 = call i32 (i8*, ...) @__isoc99_scanf(i8* getelementptr inbounds ([9 x i8], [9 x i8]* @.str, i64 0, i64 0), i32* nonnull %3, i32* nonnull %2, i32* nonnull %1)
  %8 = load i32, i32* %2, align 4, !tbaa !5
  %9 = add i32 %8, -1
  %10 = icmp ult i32 %9, 12
  br i1 %10, label %13, label %11

11:                                               ; preds = %0
  %12 = call i32 (i8*, ...) @printf(i8* nonnull dereferenceable(1) getelementptr inbounds ([11 x i8], [11 x i8]* @.str.1, i64 0, i64 0))
  br label %17

13:                                               ; preds = %0
  %14 = sext i32 %9 to i64
  %15 = getelementptr inbounds [12 x i32], [12 x i32]* @switch.table.main, i64 0, i64 %14
  %16 = load i32, i32* %15, align 4
  br label %17

17:                                               ; preds = %13, %11
  %18 = phi i32 [ undef, %11 ], [ %16, %13 ]
  %19 = load i32, i32* %1, align 4, !tbaa !5
  %20 = load i32, i32* %3, align 4, !tbaa !5
  %21 = srem i32 %20, 400
  %22 = icmp eq i32 %21, 0
  br i1 %22, label %29, label %23

23:                                               ; preds = %17
  %24 = and i32 %20, 3
  %25 = icmp eq i32 %24, 0
  %26 = srem i32 %20, 100
  %27 = icmp ne i32 %26, 0
  %28 = and i1 %25, %27
  br label %29

29:                                               ; preds = %23, %17
  %30 = phi i1 [ true, %17 ], [ %28, %23 ]
  %31 = add nsw i32 %19, %18
  %32 = load i32, i32* %2, align 4
  %33 = icmp sgt i32 %32, 2
  %34 = select i1 %30, i1 %33, i1 false
  %35 = zext i1 %34 to i32
  %36 = add nsw i32 %31, %35
  %37 = call i32 (i8*, ...) @printf(i8* nonnull dereferenceable(1) getelementptr inbounds ([3 x i8], [3 x i8]* @.str.2, i64 0, i64 0), i32 %36)
  call void @llvm.lifetime.end.p0i8(i64 4, i8* nonnull %6) #3
  call void @llvm.lifetime.end.p0i8(i64 4, i8* nonnull %5) #3
  call void @llvm.lifetime.end.p0i8(i64 4, i8* nonnull %4) #3
  ret i32 0
}

; Function Attrs: argmemonly mustprogress nofree nosync nounwind willreturn
declare void @llvm.lifetime.start.p0i8(i64 immarg, i8* nocapture) #1

; Function Attrs: nofree nounwind
declare noundef i32 @__isoc99_scanf(i8* nocapture noundef readonly, ...) local_unnamed_addr #2

; Function Attrs: nofree nounwind
declare noundef i32 @printf(i8* nocapture noundef readonly, ...) local_unnamed_addr #2

; Function Attrs: argmemonly mustprogress nofree nosync nounwind willreturn
declare void @llvm.lifetime.end.p0i8(i64 immarg, i8* nocapture) #1


!llvm.module.flags = !{!0, !1, !2, !3}
!llvm.ident = !{!4}

!0 = !{i32 1, !"wchar_size", i32 4}
!1 = !{i32 7, !"PIC Level", i32 2}
!2 = !{i32 7, !"PIE Level", i32 2}
!3 = !{i32 7, !"uwtable", i32 1}
!4 = !{!"clang version 13.0.0"}
!5 = !{!6, !6, i64 0}
!6 = !{!"int", !7, i64 0}
!7 = !{!"omnipotent char", !8, i64 0}
!8 = !{!"Simple C/C++ TBAA"}
